target datalayout = "e-m:e-p270:32:32-p271:32:32-p272:64:64-i64:64-i128:128-f80:128-n8:16:32:64-S128"
target triple = "x86_64-pc-linux-gnu"

%struct.opj_tls_t = type { ptr, i32 }
%struct.opj_tls_key_val_t = type { i32, ptr, ptr }

; Function Attrs: nounwind uwtable
define hidden i32 @opj_tls_set(ptr noundef %0, i32 noundef %1, ptr noundef %2, ptr noundef %3) #0 {
  %5 = alloca i32, align 4
  %6 = alloca ptr, align 8
  %7 = alloca i32, align 4
  %8 = alloca ptr, align 8
  %9 = alloca ptr, align 8
  %10 = alloca ptr, align 8
  %11 = alloca i32, align 4
  %12 = alloca i32, align 4
  store ptr %0, ptr %6, align 8, !tbaa !20
  store i32 %1, ptr %7, align 4, !tbaa !10
  store ptr %2, ptr %8, align 8, !tbaa !12
  store ptr %3, ptr %9, align 8, !tbaa !12
  call void @llvm.lifetime.start.p0(i64 8, ptr %10) #4
  call void @llvm.lifetime.start.p0(i64 4, ptr %11) #4
  %13 = load ptr, ptr %6, align 8, !tbaa !20
  %14 = getelementptr inbounds nuw %struct.opj_tls_t, ptr %13, i32 0, i32 1
  %15 = load i32, ptr %14, align 8, !tbaa !22
  %16 = icmp eq i32 %15, 2147483647
  br i1 %16, label %17, label %18

17:                                               ; preds = %4
  store i32 0, ptr %5, align 4
  store i32 1, ptr %12, align 4
  br label %130

18:                                               ; preds = %4
  store i32 0, ptr %11, align 4, !tbaa !10
  br label %19

19:                                               ; preds = %81, %18
  %20 = load i32, ptr %11, align 4, !tbaa !10
  %21 = load ptr, ptr %6, align 8, !tbaa !20
  %22 = getelementptr inbounds nuw %struct.opj_tls_t, ptr %21, i32 0, i32 1
  %23 = load i32, ptr %22, align 8, !tbaa !22
  %24 = icmp slt i32 %20, %23
  br i1 %24, label %25, label %84

25:                                               ; preds = %19
  %26 = load ptr, ptr %6, align 8, !tbaa !20
  %27 = getelementptr inbounds nuw %struct.opj_tls_t, ptr %26, i32 0, i32 0
  %28 = load ptr, ptr %27, align 8, !tbaa !24
  %29 = load i32, ptr %11, align 4, !tbaa !10
  %30 = sext i32 %29 to i64
  %31 = getelementptr inbounds %struct.opj_tls_key_val_t, ptr %28, i64 %30
  %32 = getelementptr inbounds nuw %struct.opj_tls_key_val_t, ptr %31, i32 0, i32 0
  %33 = load i32, ptr %32, align 8, !tbaa !25
  %34 = load i32, ptr %7, align 4, !tbaa !10
  %35 = icmp eq i32 %33, %34
  br i1 %35, label %36, label %80

36:                                               ; preds = %25
  %37 = load ptr, ptr %6, align 8, !tbaa !20
  %38 = getelementptr inbounds nuw %struct.opj_tls_t, ptr %37, i32 0, i32 0
  %39 = load ptr, ptr %38, align 8, !tbaa !24
  %40 = load i32, ptr %11, align 4, !tbaa !10
  %41 = sext i32 %40 to i64
  %42 = getelementptr inbounds %struct.opj_tls_key_val_t, ptr %39, i64 %41
  %43 = getelementptr inbounds nuw %struct.opj_tls_key_val_t, ptr %42, i32 0, i32 2
  %44 = load ptr, ptr %43, align 8, !tbaa !30
  %45 = icmp ne ptr %44, null
  br i1 %45, label %46, label %63

46:                                               ; preds = %36
  %47 = load ptr, ptr %6, align 8, !tbaa !20
  %48 = getelementptr inbounds nuw %struct.opj_tls_t, ptr %47, i32 0, i32 0
  %49 = load ptr, ptr %48, align 8, !tbaa !24
  %50 = load i32, ptr %11, align 4, !tbaa !10
  %51 = sext i32 %50 to i64
  %52 = getelementptr inbounds %struct.opj_tls_key_val_t, ptr %49, i64 %51
  %53 = getelementptr inbounds nuw %struct.opj_tls_key_val_t, ptr %52, i32 0, i32 2
  %54 = load ptr, ptr %53, align 8, !tbaa !30
  %55 = load ptr, ptr %6, align 8, !tbaa !20
  %56 = getelementptr inbounds nuw %struct.opj_tls_t, ptr %55, i32 0, i32 0
  %57 = load ptr, ptr %56, align 8, !tbaa !24
  %58 = load i32, ptr %11, align 4, !tbaa !10
  %59 = sext i32 %58 to i64
  %60 = getelementptr inbounds %struct.opj_tls_key_val_t, ptr %57, i64 %59
  %61 = getelementptr inbounds nuw %struct.opj_tls_key_val_t, ptr %60, i32 0, i32 1
  %62 = load ptr, ptr %61, align 8, !tbaa !27
  call void %54(ptr noundef %62)
  br label %63

63:                                               ; preds = %46, %36
  %64 = load ptr, ptr %8, align 8, !tbaa !12
  %65 = load ptr, ptr %6, align 8, !tbaa !20
  %66 = getelementptr inbounds nuw %struct.opj_tls_t, ptr %65, i32 0, i32 0
  %67 = load ptr, ptr %66, align 8, !tbaa !24
  %68 = load i32, ptr %11, align 4, !tbaa !10
  %69 = sext i32 %68 to i64
  %70 = getelementptr inbounds %struct.opj_tls_key_val_t, ptr %67, i64 %69
  %71 = getelementptr inbounds nuw %struct.opj_tls_key_val_t, ptr %70, i32 0, i32 1
  store ptr %64, ptr %71, align 8, !tbaa !27
  %72 = load ptr, ptr %9, align 8, !tbaa !12
  %73 = load ptr, ptr %6, align 8, !tbaa !20
  %74 = getelementptr inbounds nuw %struct.opj_tls_t, ptr %73, i32 0, i32 0
  %75 = load ptr, ptr %74, align 8, !tbaa !24
  %76 = load i32, ptr %11, align 4, !tbaa !10
  %77 = sext i32 %76 to i64
  %78 = getelementptr inbounds %struct.opj_tls_key_val_t, ptr %75, i64 %77
  %79 = getelementptr inbounds nuw %struct.opj_tls_key_val_t, ptr %78, i32 0, i32 2
  store ptr %72, ptr %79, align 8, !tbaa !30
  store i32 1, ptr %5, align 4
  store i32 1, ptr %12, align 4
  br label %130

80:                                               ; preds = %25
  br label %81

81:                                               ; preds = %80
  %82 = load i32, ptr %11, align 4, !tbaa !10
  %83 = add nsw i32 %82, 1
  store i32 %83, ptr %11, align 4, !tbaa !10
  br label %19, !llvm.loop !31

84:                                               ; preds = %19
  %85 = load ptr, ptr %6, align 8, !tbaa !20
  %86 = getelementptr inbounds nuw %struct.opj_tls_t, ptr %85, i32 0, i32 0
  %87 = load ptr, ptr %86, align 8, !tbaa !24
  %88 = load ptr, ptr %6, align 8, !tbaa !20
  %89 = getelementptr inbounds nuw %struct.opj_tls_t, ptr %88, i32 0, i32 1
  %90 = load i32, ptr %89, align 8, !tbaa !22
  %91 = sext i32 %90 to i64
  %92 = add i64 %91, 1
  %93 = mul i64 %92, 24
  %94 = call ptr @opj_realloc(ptr noundef %87, i64 noundef %93)
  store ptr %94, ptr %10, align 8, !tbaa !12
  %95 = load ptr, ptr %10, align 8, !tbaa !12
  %96 = icmp ne ptr %95, null
  br i1 %96, label %98, label %97

97:                                               ; preds = %84
  store i32 0, ptr %5, align 4
  store i32 1, ptr %12, align 4
  br label %130

98:                                               ; preds = %84
  %99 = load ptr, ptr %10, align 8, !tbaa !12
  %100 = load ptr, ptr %6, align 8, !tbaa !20
  %101 = getelementptr inbounds nuw %struct.opj_tls_t, ptr %100, i32 0, i32 0
  store ptr %99, ptr %101, align 8, !tbaa !24
  %102 = load i32, ptr %7, align 4, !tbaa !10
  %103 = load ptr, ptr %10, align 8, !tbaa !12
  %104 = load ptr, ptr %6, align 8, !tbaa !20
  %105 = getelementptr inbounds nuw %struct.opj_tls_t, ptr %104, i32 0, i32 1
  %106 = load i32, ptr %105, align 8, !tbaa !22
  %107 = sext i32 %106 to i64
  %108 = getelementptr inbounds %struct.opj_tls_key_val_t, ptr %103, i64 %107
  %109 = getelementptr inbounds nuw %struct.opj_tls_key_val_t, ptr %108, i32 0, i32 0
  store i32 %102, ptr %109, align 8, !tbaa !25
  %110 = load ptr, ptr %8, align 8, !tbaa !12
  %111 = load ptr, ptr %10, align 8, !tbaa !12
  %112 = load ptr, ptr %6, align 8, !tbaa !20
  %113 = getelementptr inbounds nuw %struct.opj_tls_t, ptr %112, i32 0, i32 1
  %114 = load i32, ptr %113, align 8, !tbaa !22
  %115 = sext i32 %114 to i64
  %116 = getelementptr inbounds %struct.opj_tls_key_val_t, ptr %111, i64 %115
  %117 = getelementptr inbounds nuw %struct.opj_tls_key_val_t, ptr %116, i32 0, i32 1
  store ptr %110, ptr %117, align 8, !tbaa !27
  %118 = load ptr, ptr %9, align 8, !tbaa !12
  %119 = load ptr, ptr %10, align 8, !tbaa !12
  %120 = load ptr, ptr %6, align 8, !tbaa !20
  %121 = getelementptr inbounds nuw %struct.opj_tls_t, ptr %120, i32 0, i32 1
  %122 = load i32, ptr %121, align 8, !tbaa !22
  %123 = sext i32 %122 to i64
  %124 = getelementptr inbounds %struct.opj_tls_key_val_t, ptr %119, i64 %123
  %125 = getelementptr inbounds nuw %struct.opj_tls_key_val_t, ptr %124, i32 0, i32 2
  store ptr %118, ptr %125, align 8, !tbaa !30
  %126 = load ptr, ptr %6, align 8, !tbaa !20
  %127 = getelementptr inbounds nuw %struct.opj_tls_t, ptr %126, i32 0, i32 1
  %128 = load i32, ptr %127, align 8, !tbaa !22
  %129 = add nsw i32 %128, 1
  store i32 %129, ptr %127, align 8, !tbaa !22
  store i32 1, ptr %5, align 4
  store i32 1, ptr %12, align 4
  br label %130

130:                                              ; preds = %98, %97, %63, %17
  call void @llvm.lifetime.end.p0(i64 4, ptr %11) #4
  call void @llvm.lifetime.end.p0(i64 8, ptr %10) #4
  %131 = load i32, ptr %5, align 4
  ret i32 %131
}