; Function Attrs: nounwind uwtable
define hidden range(i32 0, 2) i32 @opj_tls_set(ptr noundef captures(none) %0, i32 noundef %1, ptr noundef %2, ptr noundef %3) local_unnamed_addr #1 {
  %5 = getelementptr inbounds nuw i8, ptr %0, i64 8
  %6 = load i32, ptr %5, align 8, !tbaa !11
  %7 = icmp eq i32 %6, 2147483647
  br i1 %7, label %35, label %.preheader

.preheader:                                       ; preds = %4
  %8 = icmp sgt i32 %6, 0
  %.pre = load ptr, ptr %0, align 8, !tbaa !14
  br i1 %8, label %.lr.ph, label %._crit_edge

.lr.ph:                                           ; preds = %.preheader
  %wide.trip.count = zext nneg i32 %6 to i64
  br label %10

9:                                                ; preds = %10
  %indvars.iv.next = add nuw nsw i64 %indvars.iv, 1
  %exitcond.not = icmp eq i64 %indvars.iv.next, %wide.trip.count
  br i1 %exitcond.not, label %._crit_edge, label %10, !llvm.loop !20

10:                                               ; preds = %.lr.ph, %9
  %indvars.iv = phi i64 [ 0, %.lr.ph ], [ %indvars.iv.next, %9 ]
  %11 = getelementptr inbounds nuw %struct.opj_tls_key_val_t, ptr %.pre, i64 %indvars.iv
  %12 = load i32, ptr %11, align 8, !tbaa !17
  %13 = icmp eq i32 %12, %1
  br i1 %13, label %14, label %9

14:                                               ; preds = %10
  %15 = getelementptr inbounds nuw i8, ptr %11, i64 16
  %16 = load ptr, ptr %15, align 8, !tbaa !21
  %.not38 = icmp eq ptr %16, null
  br i1 %.not38, label %20, label %17

17:                                               ; preds = %14
  %18 = getelementptr inbounds nuw i8, ptr %11, i64 8
  %19 = load ptr, ptr %18, align 8, !tbaa !19
  tail call void %16(ptr noundef %19) #8
  %.pre45 = load ptr, ptr %0, align 8, !tbaa !14
  br label %20

20:                                               ; preds = %17, %14
  %21 = phi ptr [ %.pre45, %17 ], [ %.pre, %14 ]
  %22 = getelementptr inbounds nuw %struct.opj_tls_key_val_t, ptr %21, i64 %indvars.iv, i32 1
  store ptr %2, ptr %22, align 8, !tbaa !19
  %23 = getelementptr inbounds nuw %struct.opj_tls_key_val_t, ptr %21, i64 %indvars.iv, i32 2
  store ptr %3, ptr %23, align 8, !tbaa !21
  br label %35

._crit_edge:                                      ; preds = %9, %.preheader
  %24 = sext i32 %6 to i64
  %25 = mul nsw i64 %24, 24
  %26 = add nsw i64 %25, 24
  %27 = tail call ptr @opj_realloc(ptr noundef %.pre, i64 noundef %26) #8
  %.not = icmp eq ptr %27, null
  br i1 %.not, label %35, label %28

28:                                               ; preds = %._crit_edge
  store ptr %27, ptr %0, align 8, !tbaa !14
  %29 = load i32, ptr %5, align 8, !tbaa !11
  %30 = sext i32 %29 to i64
  %31 = getelementptr inbounds %struct.opj_tls_key_val_t, ptr %27, i64 %30
  store i32 %1, ptr %31, align 8, !tbaa !17
  %32 = getelementptr inbounds %struct.opj_tls_key_val_t, ptr %27, i64 %30, i32 1
  store ptr %2, ptr %32, align 8, !tbaa !19
  %33 = getelementptr inbounds %struct.opj_tls_key_val_t, ptr %27, i64 %30, i32 2
  store ptr %3, ptr %33, align 8, !tbaa !21
  %34 = add nsw i32 %29, 1
  store i32 %34, ptr %5, align 8, !tbaa !11
  br label %35

35:                                               ; preds = %._crit_edge, %4, %28, %20
  %.034 = phi i32 [ 1, %20 ], [ 1, %28 ], [ 0, %4 ], [ 0, %._crit_edge ]
  ret i32 %.034
}